target datalayout = "e-m:e-p270:32:32-p271:32:32-p272:64:64-i64:64-i128:128-f80:128-n8:16:32:64-S128"
target triple = "x86_64-pc-linux-gnu"

%struct.wtap_block = type { ptr, ptr, ptr, i32 }
%struct.wtap_blocktype_t = type { i32, ptr, ptr, ptr, ptr, ptr, ptr }
%struct._GArray = type { ptr, i32 }
%struct.wtap_option_t = type { i32, %union.wtap_optval_t }
%union.wtap_optval_t = type { %struct.custom_opt_s }
%struct.custom_opt_s = type { i32, %union.anon.0 }
%union.anon.0 = type { %struct.nflx_custom_opt_data }
%struct.nflx_custom_opt_data = type { i32, i64, ptr, i8 }

; Function Attrs: null_pointer_is_valid sspstrong uwtable
define internal void @wtap_block_free_options(ptr noundef %0) #0 {
  %2 = alloca ptr, align 8
  %3 = alloca i32, align 4
  %4 = alloca ptr, align 8
  %5 = alloca i32, align 4
  store ptr %0, ptr %2, align 8
  call void @llvm.lifetime.start.p0(i64 4, ptr %3) #15
  call void @llvm.lifetime.start.p0(i64 8, ptr %4) #15
  %6 = load ptr, ptr %2, align 8
  %7 = icmp eq ptr %6, null
  br i1 %7, label %13, label %8

8:                                                ; preds = %1
  %9 = load ptr, ptr %2, align 8
  %10 = getelementptr inbounds nuw %struct.wtap_block, ptr %9, i32 0, i32 2
  %11 = load ptr, ptr %10, align 8
  %12 = icmp eq ptr %11, null
  br i1 %12, label %13, label %14

13:                                               ; preds = %8, %1
  store i32 1, ptr %5, align 4
  br label %47

14:                                               ; preds = %8
  store i32 0, ptr %3, align 4
  br label %15

15:                                               ; preds = %34, %14
  %16 = load i32, ptr %3, align 4
  %17 = load ptr, ptr %2, align 8
  %18 = getelementptr inbounds nuw %struct.wtap_block, ptr %17, i32 0, i32 2
  %19 = load ptr, ptr %18, align 8
  %20 = getelementptr inbounds nuw %struct._GArray, ptr %19, i32 0, i32 1
  %21 = load i32, ptr %20, align 8
  %22 = icmp ult i32 %16, %21
  br i1 %22, label %23, label %37

23:                                               ; preds = %15
  %24 = load ptr, ptr %2, align 8
  %25 = getelementptr inbounds nuw %struct.wtap_block, ptr %24, i32 0, i32 2
  %26 = load ptr, ptr %25, align 8
  %27 = getelementptr inbounds nuw %struct._GArray, ptr %26, i32 0, i32 0
  %28 = load ptr, ptr %27, align 8
  %29 = load i32, ptr %3, align 4
  %30 = zext i32 %29 to i64
  %31 = getelementptr %struct.wtap_option_t, ptr %28, i64 %30
  store ptr %31, ptr %4, align 8
  %32 = load ptr, ptr %2, align 8
  %33 = load ptr, ptr %4, align 8
  call void @wtap_block_free_option(ptr noundef %32, ptr noundef %33)
  br label %34

34:                                               ; preds = %23
  %35 = load i32, ptr %3, align 4
  %36 = add i32 %35, 1
  store i32 %36, ptr %3, align 4
  br label %15, !llvm.loop !6

37:                                               ; preds = %15
  %38 = load ptr, ptr %2, align 8
  %39 = getelementptr inbounds nuw %struct.wtap_block, ptr %38, i32 0, i32 2
  %40 = load ptr, ptr %39, align 8
  %41 = load ptr, ptr %2, align 8
  %42 = getelementptr inbounds nuw %struct.wtap_block, ptr %41, i32 0, i32 2
  %43 = load ptr, ptr %42, align 8
  %44 = getelementptr inbounds nuw %struct._GArray, ptr %43, i32 0, i32 1
  %45 = load i32, ptr %44, align 8
  %46 = call ptr @g_array_remove_range(ptr noundef %40, i32 noundef 0, i32 noundef %45)
  store i32 0, ptr %5, align 4
  br label %47

47:                                               ; preds = %37, %13
  call void @llvm.lifetime.end.p0(i64 8, ptr %4) #15
  call void @llvm.lifetime.end.p0(i64 4, ptr %3) #15
  %48 = load i32, ptr %5, align 4
  switch i32 %48, label %50 [
    i32 0, label %49
    i32 1, label %49
  ]

49:                                               ; preds = %47, %47
  ret void

50:                                               ; preds = %47
  unreachable
}

; Function Attrs: null_pointer_is_valid sspstrong uwtable
define void @wtap_block_unref(ptr noundef %0) #0 {
  %2 = alloca ptr, align 8
  %3 = alloca i32, align 4
  %4 = alloca i32, align 4
  %5 = alloca i32, align 4
  store ptr %0, ptr %2, align 8
  %6 = load ptr, ptr %2, align 8
  %7 = icmp ne ptr %6, null
  br i1 %7, label %8, label %43

8:                                                ; preds = %1
  %9 = load ptr, ptr %2, align 8
  %10 = getelementptr inbounds nuw %struct.wtap_block, ptr %9, i32 0, i32 3
  store i32 1, ptr %4, align 4
  %11 = load i32, ptr %4, align 4
  %12 = atomicrmw sub ptr %10, i32 %11 seq_cst, align 8
  store i32 %12, ptr %5, align 4
  %13 = load i32, ptr %5, align 4
  %14 = icmp eq i32 %13, 1
  %15 = zext i1 %14 to i32
  store i32 %15, ptr %3, align 4
  %16 = load i32, ptr %3, align 4
  %17 = icmp ne i32 %16, 0
  br i1 %17, label %18, label %42

18:                                               ; preds = %8
  %19 = load ptr, ptr %2, align 8
  %20 = getelementptr inbounds nuw %struct.wtap_block, ptr %19, i32 0, i32 0
  %21 = load ptr, ptr %20, align 8
  %22 = getelementptr inbounds nuw %struct.wtap_blocktype_t, ptr %21, i32 0, i32 4
  %23 = load ptr, ptr %22, align 8
  %24 = icmp ne ptr %23, null
  br i1 %24, label %25, label %32

25:                                               ; preds = %18
  %26 = load ptr, ptr %2, align 8
  %27 = getelementptr inbounds nuw %struct.wtap_block, ptr %26, i32 0, i32 0
  %28 = load ptr, ptr %27, align 8
  %29 = getelementptr inbounds nuw %struct.wtap_blocktype_t, ptr %28, i32 0, i32 4
  %30 = load ptr, ptr %29, align 8
  %31 = load ptr, ptr %2, align 8
  call void %30(ptr noundef %31)
  br label %32

32:                                               ; preds = %25, %18
  %33 = load ptr, ptr %2, align 8
  %34 = getelementptr inbounds nuw %struct.wtap_block, ptr %33, i32 0, i32 1
  %35 = load ptr, ptr %34, align 8
  call void @g_free(ptr noundef %35)
  %36 = load ptr, ptr %2, align 8
  call void @wtap_block_free_options(ptr noundef %36)
  %37 = load ptr, ptr %2, align 8
  %38 = getelementptr inbounds nuw %struct.wtap_block, ptr %37, i32 0, i32 2
  %39 = load ptr, ptr %38, align 8
  %40 = call ptr @g_array_free(ptr noundef %39, i32 noundef 1)
  %41 = load ptr, ptr %2, align 8
  call void @g_free(ptr noundef %41)
  br label %42

42:                                               ; preds = %32, %8
  br label %43

43:                                               ; preds = %42, %1
  ret void
}