; Function Attrs: null_pointer_is_valid sspstrong uwtable
define void @wtap_block_unref(ptr noundef %0) local_unnamed_addr #0 {
  %.not = icmp eq ptr %0, null
  br i1 %.not, label %31, label %2

2:                                                ; preds = %1
  %3 = getelementptr inbounds nuw i8, ptr %0, i64 24
  %4 = atomicrmw sub ptr %3, i32 1 seq_cst, align 8
  %5 = icmp eq i32 %4, 1
  br i1 %5, label %6, label %31

6:                                                ; preds = %2
  %7 = load ptr, ptr %0, align 8
  %8 = getelementptr inbounds nuw i8, ptr %7, i64 32
  %9 = load ptr, ptr %8, align 8
  %.not12 = icmp eq ptr %9, null
  br i1 %.not12, label %11, label %10

10:                                               ; preds = %6
  tail call void %9(ptr noundef nonnull %0)
  br label %11

11:                                               ; preds = %10, %6
  %12 = getelementptr inbounds nuw i8, ptr %0, i64 8
  %13 = load ptr, ptr %12, align 8
  tail call void @g_free(ptr noundef %13)
  %14 = getelementptr inbounds nuw i8, ptr %0, i64 16
  %15 = load ptr, ptr %14, align 8
  %16 = icmp eq ptr %15, null
  br i1 %16, label %wtap_block_free_options.exit, label %.preheader.i

.preheader.i:                                     ; preds = %11
  %17 = getelementptr inbounds nuw i8, ptr %15, i64 8
  %18 = load i32, ptr %17, align 8
  %.not.i = icmp eq i32 %18, 0
  br i1 %.not.i, label %._crit_edge.i, label %.lr.ph.i

.lr.ph.i:                                         ; preds = %.preheader.i, %.lr.ph.i
  %indvars.iv.i = phi i64 [ %indvars.iv.next.i, %.lr.ph.i ], [ 0, %.preheader.i ]
  %19 = phi ptr [ %23, %.lr.ph.i ], [ %15, %.preheader.i ]
  %20 = load ptr, ptr %19, align 8
  %21 = getelementptr %struct.wtap_option_t, ptr %20, i64 %indvars.iv.i
  %.val.i = load ptr, ptr %0, align 8
  %22 = getelementptr i8, ptr %.val.i, i64 48
  %.val.val.i = load ptr, ptr %22, align 8
  tail call fastcc void @wtap_block_free_option(ptr %.val.val.i, ptr noundef %21)
  %indvars.iv.next.i = add nuw nsw i64 %indvars.iv.i, 1
  %23 = load ptr, ptr %14, align 8
  %24 = getelementptr inbounds nuw i8, ptr %23, i64 8
  %25 = load i32, ptr %24, align 8
  %26 = zext i32 %25 to i64
  %27 = icmp samesign ult i64 %indvars.iv.next.i, %26
  br i1 %27, label %.lr.ph.i, label %._crit_edge.i, !llvm.loop !6

._crit_edge.i:                                    ; preds = %.lr.ph.i, %.preheader.i
  %.lcssa12.i = phi ptr [ %15, %.preheader.i ], [ %23, %.lr.ph.i ]
  %.lcssa.i = phi i32 [ 0, %.preheader.i ], [ %25, %.lr.ph.i ]
  %28 = tail call ptr @g_array_remove_range(ptr noundef %.lcssa12.i, i32 noundef 0, i32 noundef %.lcssa.i)
  %.pre = load ptr, ptr %14, align 8
  br label %wtap_block_free_options.exit

wtap_block_free_options.exit:                     ; preds = %11, %._crit_edge.i
  %29 = phi ptr [ null, %11 ], [ %.pre, %._crit_edge.i ]
  %30 = tail call ptr @g_array_free(ptr noundef %29, i32 noundef 1)
  tail call void @g_free(ptr noundef nonnull %0)
  br label %31

31:                                               ; preds = %2, %wtap_block_free_options.exit, %1
  ret void
}